target datalayout = "e-m:e-p270:32:32-p271:32:32-p272:64:64-i64:64-i128:128-f80:128-n8:16:32:64-S128"
target triple = "x86_64-pc-linux-gnu"

%struct.lua_TValue = type { %union.Value, [1 x i32], i32 }
%union.Value = type { ptr }
%struct.lua_State = type { i8, i8, i8, i8, i8, i8, i8, ptr, ptr, ptr, ptr, ptr, ptr, ptr, ptr, i32, i32, i16, i16, i32, ptr, ptr, ptr, ptr, ptr }
%struct.CallInfo = type { ptr, ptr, ptr, ptr, i32, i32 }
%struct.Closure = type { i8, i8, i8, i8, i8, i8, i8, ptr, ptr, %union.anon.1 }
%union.anon.1 = type { %struct.anon }
%struct.anon = type { ptr, ptr, ptr, [1 x %struct.lua_TValue] }
%struct.anon.2 = type { ptr, [1 x %struct.lua_TValue] }
%struct.Proto = type { i8, i8, i8, i8, i8, i8, i8, i8, ptr, ptr, ptr, ptr, ptr, i64, ptr, ptr, ptr, ptr, ptr, ptr, ptr, ptr, ptr, ptr, i32, i32, i32, i32, i32, i32, i32, i32, i32, i32 }

; Function Attrs: mustprogress uwtable
define dso_local void @_ZN4Luau7CodeGen24executeGETVARARGSMultRetEP9lua_StatePKjP10lua_TValuei(ptr noundef %0, ptr noundef %1, ptr noundef %2, i32 noundef %3) #2 {
  %5 = alloca ptr, align 8
  %6 = alloca ptr, align 8
  %7 = alloca ptr, align 8
  %8 = alloca i32, align 4
  %9 = alloca ptr, align 8
  %10 = alloca i32, align 4
  %11 = alloca ptr, align 8
  %12 = alloca i32, align 4
  %13 = alloca ptr, align 8
  %14 = alloca ptr, align 8
  store ptr %0, ptr %5, align 8
  store ptr %1, ptr %6, align 8
  store ptr %2, ptr %7, align 8
  store i32 %3, ptr %8, align 4
  %15 = load ptr, ptr %5, align 8
  %16 = getelementptr inbounds %struct.lua_State, ptr %15, i32 0, i32 10
  %17 = load ptr, ptr %16, align 8
  %18 = getelementptr inbounds %struct.CallInfo, ptr %17, i32 0, i32 1
  %19 = load ptr, ptr %18, align 8
  %20 = getelementptr inbounds %struct.lua_TValue, ptr %19, i32 0, i32 0
  %21 = load ptr, ptr %20, align 8
  store ptr %21, ptr %9, align 8
  %22 = load ptr, ptr %7, align 8
  %23 = load ptr, ptr %5, align 8
  %24 = getelementptr inbounds %struct.lua_State, ptr %23, i32 0, i32 10
  %25 = load ptr, ptr %24, align 8
  %26 = getelementptr inbounds %struct.CallInfo, ptr %25, i32 0, i32 1
  %27 = load ptr, ptr %26, align 8
  %28 = ptrtoint ptr %22 to i64
  %29 = ptrtoint ptr %27 to i64
  %30 = sub i64 %28, %29
  %31 = sdiv exact i64 %30, 16
  %32 = trunc i64 %31 to i32
  %33 = load ptr, ptr %9, align 8
  %34 = getelementptr inbounds %struct.Closure, ptr %33, i32 0, i32 9
  %35 = getelementptr inbounds %struct.anon.2, ptr %34, i32 0, i32 0
  %36 = load ptr, ptr %35, align 8
  %37 = getelementptr inbounds %struct.Proto, ptr %36, i32 0, i32 4
  %38 = load i8, ptr %37, align 4
  %39 = zext i8 %38 to i32
  %40 = sub nsw i32 %32, %39
  %41 = sub nsw i32 %40, 1
  store i32 %41, ptr %10, align 4
  %42 = load ptr, ptr %6, align 8
  %43 = load ptr, ptr %5, align 8
  %44 = getelementptr inbounds %struct.lua_State, ptr %43, i32 0, i32 10
  %45 = load ptr, ptr %44, align 8
  %46 = getelementptr inbounds %struct.CallInfo, ptr %45, i32 0, i32 3
  store ptr %42, ptr %46, align 8
  %47 = load ptr, ptr %5, align 8
  %48 = getelementptr inbounds %struct.lua_State, ptr %47, i32 0, i32 11
  %49 = load ptr, ptr %48, align 8
  %50 = load ptr, ptr %5, align 8
  %51 = getelementptr inbounds %struct.lua_State, ptr %50, i32 0, i32 7
  %52 = load ptr, ptr %51, align 8
  %53 = ptrtoint ptr %49 to i64
  %54 = ptrtoint ptr %52 to i64
  %55 = sub i64 %53, %54
  %56 = load i32, ptr %10, align 4
  %57 = mul nsw i32 %56, 16
  %58 = sext i32 %57 to i64
  %59 = icmp sle i64 %55, %58
  br i1 %59, label %60, label %63

60:                                               ; preds = %4
  %61 = load ptr, ptr %5, align 8
  %62 = load i32, ptr %10, align 4
  call void @_Z14luaD_growstackP9lua_Statei(ptr noundef %61, i32 noundef %62)
  br label %64

63:                                               ; preds = %4
  br label %64

64:                                               ; preds = %63, %60
  %65 = load ptr, ptr %5, align 8
  %66 = getelementptr inbounds %struct.lua_State, ptr %65, i32 0, i32 8
  %67 = load ptr, ptr %66, align 8
  store ptr %67, ptr %7, align 8
  %68 = load ptr, ptr %7, align 8
  %69 = load i32, ptr %8, align 4
  %70 = sext i32 %69 to i64
  %71 = getelementptr inbounds %struct.lua_TValue, ptr %68, i64 %70
  store ptr %71, ptr %11, align 8
  store i32 0, ptr %12, align 4
  br label %72

72:                                               ; preds = %91, %64
  %73 = load i32, ptr %12, align 4
  %74 = load i32, ptr %10, align 4
  %75 = icmp slt i32 %73, %74
  br i1 %75, label %76, label %94

76:                                               ; preds = %72
  %77 = load ptr, ptr %7, align 8
  %78 = load i32, ptr %10, align 4
  %79 = sext i32 %78 to i64
  %80 = sub i64 0, %79
  %81 = getelementptr inbounds %struct.lua_TValue, ptr %77, i64 %80
  %82 = load i32, ptr %12, align 4
  %83 = sext i32 %82 to i64
  %84 = getelementptr inbounds %struct.lua_TValue, ptr %81, i64 %83
  store ptr %84, ptr %13, align 8
  %85 = load ptr, ptr %11, align 8
  %86 = load i32, ptr %12, align 4
  %87 = sext i32 %86 to i64
  %88 = getelementptr inbounds %struct.lua_TValue, ptr %85, i64 %87
  store ptr %88, ptr %14, align 8
  %89 = load ptr, ptr %13, align 8
  %90 = load ptr, ptr %14, align 8
  call void @llvm.memcpy.p0.p0.i64(ptr align 8 %90, ptr align 8 %89, i64 16, i1 false)
  br label %91

91:                                               ; preds = %76
  %92 = load i32, ptr %12, align 4
  %93 = add nsw i32 %92, 1
  store i32 %93, ptr %12, align 4
  br label %72, !llvm.loop !15

94:                                               ; preds = %72
  %95 = load ptr, ptr %11, align 8
  %96 = load i32, ptr %10, align 4
  %97 = sext i32 %96 to i64
  %98 = getelementptr inbounds %struct.lua_TValue, ptr %95, i64 %97
  %99 = load ptr, ptr %5, align 8
  %100 = getelementptr inbounds %struct.lua_State, ptr %99, i32 0, i32 7
  store ptr %98, ptr %100, align 8
  ret void
}