; Function Attrs: mustprogress uwtable
define dso_local void @_ZN4Luau7CodeGen24executeGETVARARGSMultRetEP9lua_StatePKjP10lua_TValuei(ptr noundef %0, ptr noundef %1, ptr noundef %2, i32 noundef %3) local_unnamed_addr #2 {
  %5 = getelementptr inbounds i8, ptr %0, i64 32
  %6 = load ptr, ptr %5, align 8
  %7 = getelementptr inbounds i8, ptr %6, i64 8
  %8 = load ptr, ptr %7, align 8
  %9 = load ptr, ptr %8, align 8
  %10 = ptrtoint ptr %2 to i64
  %11 = ptrtoint ptr %8 to i64
  %12 = sub i64 %10, %11
  %13 = lshr exact i64 %12, 4
  %14 = trunc i64 %13 to i32
  %15 = getelementptr inbounds i8, ptr %9, i64 24
  %16 = load ptr, ptr %15, align 8
  %17 = getelementptr inbounds i8, ptr %16, i64 4
  %18 = load i8, ptr %17, align 4
  %19 = zext i8 %18 to i32
  %20 = xor i32 %19, -1
  %21 = add i32 %20, %14
  %22 = getelementptr inbounds i8, ptr %6, i64 24
  store ptr %1, ptr %22, align 8
  %23 = getelementptr inbounds i8, ptr %0, i64 40
  %24 = load ptr, ptr %23, align 8
  %25 = getelementptr inbounds i8, ptr %0, i64 8
  %26 = load ptr, ptr %25, align 8
  %27 = ptrtoint ptr %24 to i64
  %28 = ptrtoint ptr %26 to i64
  %29 = sub i64 %27, %28
  %30 = shl nsw i32 %21, 4
  %31 = sext i32 %30 to i64
  %.not = icmp sgt i64 %29, %31
  br i1 %.not, label %33, label %32

32:                                               ; preds = %4
  tail call void @_Z14luaD_growstackP9lua_Statei(ptr noundef nonnull %0, i32 noundef %21)
  br label %33

33:                                               ; preds = %4, %32
  %34 = getelementptr inbounds i8, ptr %0, i64 16
  %35 = load ptr, ptr %34, align 8
  %36 = sext i32 %3 to i64
  %37 = getelementptr %struct.lua_TValue, ptr %35, i64 %36
  %38 = icmp sgt i32 %21, 0
  br i1 %38, label %.lr.ph, label %._crit_edge

.lr.ph:                                           ; preds = %33
  %39 = zext nneg i32 %21 to i64
  %40 = sub nsw i64 0, %39
  %41 = getelementptr inbounds %struct.lua_TValue, ptr %35, i64 %40
  br label %42

42:                                               ; preds = %.lr.ph, %42
  %indvars.iv = phi i64 [ 0, %.lr.ph ], [ %indvars.iv.next, %42 ]
  %43 = getelementptr inbounds %struct.lua_TValue, ptr %41, i64 %indvars.iv
  %44 = getelementptr inbounds %struct.lua_TValue, ptr %37, i64 %indvars.iv
  tail call void @llvm.memcpy.p0.p0.i64(ptr noundef nonnull align 8 dereferenceable(16) %44, ptr noundef nonnull align 8 dereferenceable(16) %43, i64 16, i1 false)
  %indvars.iv.next = add nuw nsw i64 %indvars.iv, 1
  %exitcond.not = icmp eq i64 %indvars.iv.next, %39
  br i1 %exitcond.not, label %._crit_edge, label %42, !llvm.loop !15

._crit_edge:                                      ; preds = %42, %33
  %45 = sext i32 %21 to i64
  %46 = getelementptr inbounds %struct.lua_TValue, ptr %37, i64 %45
  store ptr %46, ptr %25, align 8
  ret void
}